target datalayout = "e-m:e-p270:32:32-p271:32:32-p272:64:64-i64:64-i128:128-f80:128-n8:16:32:64-S128"
target triple = "x86_64-unknown-linux-gnu"

%struct.rewriteConfigState = type { ptr, ptr, i32, ptr, i32, i32 }

; Function Attrs: nounwind uwtable
define dso_local void @rewriteConfigMarkAsProcessed(ptr noundef %state, ptr noundef %option) #0 {
entry:
  %state.addr = alloca ptr, align 8
  %option.addr = alloca ptr, align 8
  %opt = alloca ptr, align 8
  store ptr %state, ptr %state.addr, align 8
  store ptr %option, ptr %option.addr, align 8
  %0 = load ptr, ptr %option.addr, align 8
  %call = call ptr @sdsnew(ptr noundef %0)
  store ptr %call, ptr %opt, align 8
  %1 = load ptr, ptr %state.addr, align 8
  %rewritten = getelementptr inbounds %struct.rewriteConfigState, ptr %1, i32 0, i32 1
  %2 = load ptr, ptr %rewritten, align 8
  %3 = load ptr, ptr %opt, align 8
  %call1 = call i32 @dictAdd(ptr noundef %2, ptr noundef %3, ptr noundef null)
  %cmp = icmp ne i32 %call1, 0
  br i1 %cmp, label %if.then, label %if.end

if.then:                                          ; preds = %entry
  %4 = load ptr, ptr %opt, align 8
  call void @sdsfree(ptr noundef %4)
  br label %if.end

if.end:                                           ; preds = %if.then, %entry
  ret void
}