; Function Attrs: nounwind uwtable
define dso_local void @rewriteConfigMarkAsProcessed(ptr nocapture noundef readonly %state, ptr noundef %option) local_unnamed_addr #2 {
entry:
  %call = tail call ptr @sdsnew(ptr noundef %option) #24
  %rewritten = getelementptr inbounds i8, ptr %state, i64 8
  %0 = load ptr, ptr %rewritten, align 8
  %call1 = tail call i32 @dictAdd(ptr noundef %0, ptr noundef %call, ptr noundef null) #24
  %cmp.not = icmp eq i32 %call1, 0
  br i1 %cmp.not, label %if.end, label %if.then

if.then:                                          ; preds = %entry
  tail call void @sdsfree(ptr noundef %call) #24
  br label %if.end

if.end:                                           ; preds = %if.then, %entry
  ret void
}